target datalayout = "e-m:e-p270:32:32-p271:32:32-p272:64:64-i64:64-i128:128-f80:128-n8:16:32:64-S128"
target triple = "x86_64-pc-linux-gnu"

%struct.lua_State = type { i8, i8, i8, i8, i8, i8, i8, ptr, ptr, ptr, ptr, ptr, ptr, ptr, ptr, i32, i32, i16, i16, i32, ptr, ptr, ptr, ptr, ptr }
%struct.lua_TValue = type { %union.Value, [1 x i32], i32 }
%union.Value = type { ptr }
%struct.CallInfo = type { ptr, ptr, ptr, ptr, i32, i32 }

; Function Attrs: mustprogress uwtable
define dso_local void @_Z15lua_resetthreadP9lua_State(ptr noundef %0) #0 {
  %2 = alloca ptr, align 8
  %3 = alloca ptr, align 8
  %4 = alloca i32, align 4
  store ptr %0, ptr %2, align 8
  %5 = load ptr, ptr %2, align 8
  %6 = load ptr, ptr %2, align 8
  %7 = getelementptr inbounds %struct.lua_State, ptr %6, i32 0, i32 12
  %8 = load ptr, ptr %7, align 8
  call void @_Z10luaF_closeP9lua_StateP10lua_TValue(ptr noundef %5, ptr noundef %8)
  %9 = load ptr, ptr %2, align 8
  %10 = getelementptr inbounds %struct.lua_State, ptr %9, i32 0, i32 14
  %11 = load ptr, ptr %10, align 8
  store ptr %11, ptr %3, align 8
  %12 = load ptr, ptr %2, align 8
  %13 = getelementptr inbounds %struct.lua_State, ptr %12, i32 0, i32 12
  %14 = load ptr, ptr %13, align 8
  %15 = load ptr, ptr %3, align 8
  %16 = getelementptr inbounds %struct.CallInfo, ptr %15, i32 0, i32 1
  store ptr %14, ptr %16, align 8
  %17 = load ptr, ptr %3, align 8
  %18 = getelementptr inbounds %struct.CallInfo, ptr %17, i32 0, i32 1
  %19 = load ptr, ptr %18, align 8
  %20 = getelementptr inbounds %struct.lua_TValue, ptr %19, i64 1
  %21 = load ptr, ptr %3, align 8
  %22 = getelementptr inbounds %struct.CallInfo, ptr %21, i32 0, i32 0
  store ptr %20, ptr %22, align 8
  %23 = load ptr, ptr %3, align 8
  %24 = getelementptr inbounds %struct.CallInfo, ptr %23, i32 0, i32 0
  %25 = load ptr, ptr %24, align 8
  %26 = getelementptr inbounds %struct.lua_TValue, ptr %25, i64 20
  %27 = load ptr, ptr %3, align 8
  %28 = getelementptr inbounds %struct.CallInfo, ptr %27, i32 0, i32 2
  store ptr %26, ptr %28, align 8
  %29 = load ptr, ptr %3, align 8
  %30 = getelementptr inbounds %struct.CallInfo, ptr %29, i32 0, i32 1
  %31 = load ptr, ptr %30, align 8
  %32 = getelementptr inbounds %struct.lua_TValue, ptr %31, i32 0, i32 2
  store i32 0, ptr %32, align 4
  %33 = load ptr, ptr %3, align 8
  %34 = load ptr, ptr %2, align 8
  %35 = getelementptr inbounds %struct.lua_State, ptr %34, i32 0, i32 10
  store ptr %33, ptr %35, align 8
  %36 = load ptr, ptr %2, align 8
  %37 = getelementptr inbounds %struct.lua_State, ptr %36, i32 0, i32 16
  %38 = load i32, ptr %37, align 4
  %39 = icmp ne i32 %38, 8
  br i1 %39, label %40, label %42

40:                                               ; preds = %1
  %41 = load ptr, ptr %2, align 8
  call void @_Z14luaD_reallocCIP9lua_Statei(ptr noundef %41, i32 noundef 8)
  br label %42

42:                                               ; preds = %40, %1
  %43 = load ptr, ptr %2, align 8
  %44 = getelementptr inbounds %struct.lua_State, ptr %43, i32 0, i32 3
  store i8 0, ptr %44, align 1
  %45 = load ptr, ptr %2, align 8
  %46 = getelementptr inbounds %struct.lua_State, ptr %45, i32 0, i32 10
  %47 = load ptr, ptr %46, align 8
  %48 = getelementptr inbounds %struct.CallInfo, ptr %47, i32 0, i32 0
  %49 = load ptr, ptr %48, align 8
  %50 = load ptr, ptr %2, align 8
  %51 = getelementptr inbounds %struct.lua_State, ptr %50, i32 0, i32 8
  store ptr %49, ptr %51, align 8
  %52 = load ptr, ptr %2, align 8
  %53 = getelementptr inbounds %struct.lua_State, ptr %52, i32 0, i32 10
  %54 = load ptr, ptr %53, align 8
  %55 = getelementptr inbounds %struct.CallInfo, ptr %54, i32 0, i32 0
  %56 = load ptr, ptr %55, align 8
  %57 = load ptr, ptr %2, align 8
  %58 = getelementptr inbounds %struct.lua_State, ptr %57, i32 0, i32 7
  store ptr %56, ptr %58, align 8
  %59 = load ptr, ptr %2, align 8
  %60 = getelementptr inbounds %struct.lua_State, ptr %59, i32 0, i32 18
  store i16 0, ptr %60, align 2
  %61 = load ptr, ptr %2, align 8
  %62 = getelementptr inbounds %struct.lua_State, ptr %61, i32 0, i32 17
  store i16 0, ptr %62, align 8
  %63 = load ptr, ptr %2, align 8
  %64 = getelementptr inbounds %struct.lua_State, ptr %63, i32 0, i32 15
  %65 = load i32, ptr %64, align 8
  %66 = icmp ne i32 %65, 45
  br i1 %66, label %67, label %69

67:                                               ; preds = %42
  %68 = load ptr, ptr %2, align 8
  call void @_Z17luaD_reallocstackP9lua_Statei(ptr noundef %68, i32 noundef 40)
  br label %69

69:                                               ; preds = %67, %42
  store i32 0, ptr %4, align 4
  br label %70

70:                                               ; preds = %84, %69
  %71 = load i32, ptr %4, align 4
  %72 = load ptr, ptr %2, align 8
  %73 = getelementptr inbounds %struct.lua_State, ptr %72, i32 0, i32 15
  %74 = load i32, ptr %73, align 8
  %75 = icmp slt i32 %71, %74
  br i1 %75, label %76, label %87

76:                                               ; preds = %70
  %77 = load ptr, ptr %2, align 8
  %78 = getelementptr inbounds %struct.lua_State, ptr %77, i32 0, i32 12
  %79 = load ptr, ptr %78, align 8
  %80 = load i32, ptr %4, align 4
  %81 = sext i32 %80 to i64
  %82 = getelementptr inbounds %struct.lua_TValue, ptr %79, i64 %81
  %83 = getelementptr inbounds %struct.lua_TValue, ptr %82, i32 0, i32 2
  store i32 0, ptr %83, align 4
  br label %84

84:                                               ; preds = %76
  %85 = load i32, ptr %4, align 4
  %86 = add nsw i32 %85, 1
  store i32 %86, ptr %4, align 4
  br label %70, !llvm.loop !7

87:                                               ; preds = %70
  ret void
}