; Function Attrs: mustprogress uwtable
define dso_local void @_Z15lua_resetthreadP9lua_State(ptr noundef %0) local_unnamed_addr #0 {
  %2 = getelementptr inbounds nuw i8, ptr %0, i64 48
  %3 = load ptr, ptr %2, align 8
  tail call void @_Z10luaF_closeP9lua_StateP10lua_TValue(ptr noundef %0, ptr noundef %3)
  %4 = getelementptr inbounds nuw i8, ptr %0, i64 64
  %5 = load ptr, ptr %4, align 8
  %6 = load ptr, ptr %2, align 8
  %7 = getelementptr inbounds nuw i8, ptr %5, i64 8
  store ptr %6, ptr %7, align 8
  %8 = getelementptr inbounds nuw i8, ptr %6, i64 16
  store ptr %8, ptr %5, align 8
  %9 = getelementptr inbounds nuw i8, ptr %6, i64 336
  %10 = getelementptr inbounds nuw i8, ptr %5, i64 16
  store ptr %9, ptr %10, align 8
  %11 = getelementptr inbounds nuw i8, ptr %6, i64 12
  store i32 0, ptr %11, align 4
  %12 = getelementptr inbounds nuw i8, ptr %0, i64 32
  store ptr %5, ptr %12, align 8
  %13 = getelementptr inbounds nuw i8, ptr %0, i64 76
  %14 = load i32, ptr %13, align 4
  %.not = icmp eq i32 %14, 8
  br i1 %.not, label %16, label %15

15:                                               ; preds = %1
  tail call void @_Z14luaD_reallocCIP9lua_Statei(ptr noundef nonnull %0, i32 noundef 8)
  %.pre = load ptr, ptr %12, align 8
  br label %16

16:                                               ; preds = %15, %1
  %17 = phi ptr [ %.pre, %15 ], [ %5, %1 ]
  %18 = getelementptr inbounds nuw i8, ptr %0, i64 3
  store i8 0, ptr %18, align 1
  %19 = load ptr, ptr %17, align 8
  %20 = getelementptr inbounds nuw i8, ptr %0, i64 16
  store ptr %19, ptr %20, align 8
  %21 = getelementptr inbounds nuw i8, ptr %0, i64 8
  store ptr %19, ptr %21, align 8
  %22 = getelementptr inbounds nuw i8, ptr %0, i64 82
  store i16 0, ptr %22, align 2
  %23 = getelementptr inbounds nuw i8, ptr %0, i64 80
  store i16 0, ptr %23, align 8
  %24 = getelementptr inbounds nuw i8, ptr %0, i64 72
  %25 = load i32, ptr %24, align 8
  %.not27 = icmp eq i32 %25, 45
  br i1 %.not27, label %.lr.ph.preheader, label %26

26:                                               ; preds = %16
  tail call void @_Z17luaD_reallocstackP9lua_Statei(ptr noundef nonnull %0, i32 noundef 40)
  %.pre30 = load i32, ptr %24, align 8
  %27 = icmp sgt i32 %.pre30, 0
  br i1 %27, label %.lr.ph.preheader, label %._crit_edge

.lr.ph.preheader:                                 ; preds = %16, %26
  br label %.lr.ph

.lr.ph:                                           ; preds = %.lr.ph.preheader, %.lr.ph
  %indvars.iv = phi i64 [ %indvars.iv.next, %.lr.ph ], [ 0, %.lr.ph.preheader ]
  %28 = load ptr, ptr %2, align 8
  %29 = getelementptr inbounds nuw %struct.lua_TValue, ptr %28, i64 %indvars.iv, i32 2
  store i32 0, ptr %29, align 4
  %indvars.iv.next = add nuw nsw i64 %indvars.iv, 1
  %30 = load i32, ptr %24, align 8
  %31 = sext i32 %30 to i64
  %32 = icmp slt i64 %indvars.iv.next, %31
  br i1 %32, label %.lr.ph, label %._crit_edge, !llvm.loop !7

._crit_edge:                                      ; preds = %.lr.ph, %26
  ret void
}